target datalayout = "e-m:e-p270:32:32-p271:32:32-p272:64:64-i64:64-i128:128-f80:128-n8:16:32:64-S128"
target triple = "x86_64-pc-linux-gnu"

%struct.ARKodeMemRec = type { ptr, double, ptr, i32, i32, double, double, ptr, i32, double, ptr, i32, i32, ptr, ptr, i32, ptr, ptr, i32, ptr, ptr, ptr, ptr, ptr, ptr, ptr, ptr, ptr, ptr, ptr, ptr, ptr, ptr, ptr, i32, ptr, ptr, i32, ptr, i32, ptr, ptr, ptr, ptr, ptr, ptr, ptr, ptr, ptr, ptr, ptr, ptr, ptr, ptr, ptr, ptr, ptr, ptr, ptr, ptr, ptr, ptr, ptr, ptr, ptr, ptr, i32, ptr, ptr, ptr, ptr, ptr, ptr, ptr, i32, ptr, ptr, ptr, i32, ptr, ptr, ptr, ptr, ptr, ptr, ptr, i32, i32, i32, i32, double, double, double, double, double, double, double, double, double, double, i32, ptr, i64, i32, i32, i32, i32, i64, i64, i32, i64, i64, i64, i64, i64, i64, i64, double, double, double, double, double, i32, double, double, i32, i32, i32, i32, i32, i32, i32, i32, ptr, i32, ptr, ptr, ptr, ptr, i32, i32, i32 }
%struct._generic_SUNLinearSolver = type { ptr, ptr, ptr }
%struct._generic_SUNLinearSolver_Ops = type { ptr, ptr, ptr, ptr, ptr, ptr, ptr, ptr, ptr, ptr, ptr, ptr, ptr, ptr, ptr }
%struct.ARKLsMassMemRec = type { i32, i32, ptr, ptr, ptr, ptr, double, double, i32, double, i64, i64, i64, i64, i64, i64, i64, i64, i64, ptr, ptr, ptr, ptr, ptr, ptr, ptr, ptr, ptr, ptr, i32 }

@.str = private unnamed_addr constant [118 x i8] c"generated/home/dtcxzyw/WorkSpace/Projects/compilers/llvm-opt-benchmark/bench/sundials/sundials/src/arkode/arkode_ls.c\00", align 1
@.str.50 = private unnamed_addr constant [44 x i8] c"Error in call to SUNLinSolSetScalingVectors\00", align 1
@.str.52 = private unnamed_addr constant [38 x i8] c"Failure in SUNLinSol external package\00", align 1
@.str.54 = private unnamed_addr constant [68 x i8] c"The preconditioner solve routine failed in an unrecoverable manner.\00", align 1
@__func__.arkLsMassSolve = private unnamed_addr constant [15 x i8] c"arkLsMassSolve\00", align 1
@.str.62 = private unnamed_addr constant [68 x i8] c"The mass matrix x vector routine failed in an unrecoverable manner.\00", align 1
@.str.65 = private unnamed_addr constant [35 x i8] c"Mass matrix solver memory is NULL.\00", align 1

; Function Attrs: nounwind uwtable
define i32 @arkLs_AccessMassMem(ptr noundef %0, ptr noundef %1, ptr noundef %2) #0 {
  %4 = alloca i32, align 4
  %5 = alloca ptr, align 8
  %6 = alloca ptr, align 8
  %7 = alloca ptr, align 8
  %8 = alloca ptr, align 8
  %9 = alloca i32, align 4
  store ptr %0, ptr %5, align 8, !tbaa !11
  store ptr %1, ptr %6, align 8, !tbaa !155
  store ptr %2, ptr %7, align 8, !tbaa !159
  call void @llvm.lifetime.start.p0(i64 8, ptr %8) #7
  %10 = load ptr, ptr %5, align 8, !tbaa !11
  %11 = getelementptr inbounds nuw %struct.ARKodeMemRec, ptr %10, i32 0, i32 69
  %12 = load ptr, ptr %11, align 8, !tbaa !97
  %13 = load ptr, ptr %5, align 8, !tbaa !11
  %14 = call ptr %12(ptr noundef %13)
  store ptr %14, ptr %8, align 8, !tbaa !3
  %15 = load ptr, ptr %8, align 8, !tbaa !3
  %16 = icmp eq ptr %15, null
  br i1 %16, label %17, label %20

17:                                               ; preds = %3
  %18 = load ptr, ptr %5, align 8, !tbaa !11
  %19 = load ptr, ptr %6, align 8, !tbaa !155
  call void (ptr, i32, i32, ptr, ptr, ptr, ...) @arkProcessError(ptr noundef %18, i32 noundef -6, i32 noundef 4109, ptr noundef %19, ptr noundef @.str, ptr noundef @.str.65)
  store i32 -6, ptr %4, align 4
  store i32 1, ptr %9, align 4
  br label %23

20:                                               ; preds = %3
  %21 = load ptr, ptr %8, align 8, !tbaa !3
  %22 = load ptr, ptr %7, align 8, !tbaa !159
  store ptr %21, ptr %22, align 8, !tbaa !101
  store i32 0, ptr %4, align 4
  store i32 1, ptr %9, align 4
  br label %23

23:                                               ; preds = %20, %17
  call void @llvm.lifetime.end.p0(i64 8, ptr %8) #7
  %24 = load i32, ptr %4, align 4
  ret i32 %24
}

; Function Attrs: nounwind uwtable
define i32 @arkLsMassSolve(ptr noundef %0, ptr noundef %1, double noundef %2) #0 {
  %4 = alloca i32, align 4
  %5 = alloca ptr, align 8
  %6 = alloca ptr, align 8
  %7 = alloca double, align 8
  %8 = alloca double, align 8
  %9 = alloca double, align 8
  %10 = alloca ptr, align 8
  %11 = alloca i32, align 4
  %12 = alloca i32, align 4
  %13 = alloca i64, align 8
  %14 = alloca double, align 8
  %15 = alloca i32, align 4
  store ptr %0, ptr %5, align 8, !tbaa !11
  store ptr %1, ptr %6, align 8, !tbaa !78
  store double %2, ptr %7, align 8, !tbaa !77
  call void @llvm.lifetime.start.p0(i64 8, ptr %8) #7
  call void @llvm.lifetime.start.p0(i64 8, ptr %9) #7
  call void @llvm.lifetime.start.p0(i64 8, ptr %10) #7
  call void @llvm.lifetime.start.p0(i64 4, ptr %11) #7
  call void @llvm.lifetime.start.p0(i64 4, ptr %12) #7
  call void @llvm.lifetime.start.p0(i64 8, ptr %13) #7
  call void @llvm.lifetime.start.p0(i64 8, ptr %14) #7
  %16 = load ptr, ptr %5, align 8, !tbaa !11
  %17 = call i32 @arkLs_AccessMassMem(ptr noundef %16, ptr noundef @__func__.arkLsMassSolve, ptr noundef %10)
  store i32 %17, ptr %12, align 4, !tbaa !30
  %18 = load i32, ptr %12, align 4, !tbaa !30
  %19 = icmp ne i32 %18, 0
  br i1 %19, label %20, label %22

20:                                               ; preds = %3
  %21 = load i32, ptr %12, align 4, !tbaa !30
  store i32 %21, ptr %4, align 4
  store i32 1, ptr %15, align 4
  br label %188

22:                                               ; preds = %3
  %23 = load ptr, ptr %10, align 8, !tbaa !101
  %24 = getelementptr inbounds nuw %struct.ARKLsMassMemRec, ptr %23, i32 0, i32 0
  %25 = load i32, ptr %24, align 8, !tbaa !122
  %26 = icmp ne i32 %25, 0
  br i1 %26, label %27, label %37

27:                                               ; preds = %22
  %28 = load ptr, ptr %10, align 8, !tbaa !101
  %29 = getelementptr inbounds nuw %struct.ARKLsMassMemRec, ptr %28, i32 0, i32 6
  %30 = load double, ptr %29, align 8, !tbaa !134
  %31 = load double, ptr %7, align 8, !tbaa !77
  %32 = fmul double %30, %31
  %33 = load ptr, ptr %10, align 8, !tbaa !101
  %34 = getelementptr inbounds nuw %struct.ARKLsMassMemRec, ptr %33, i32 0, i32 7
  %35 = load double, ptr %34, align 8, !tbaa !138
  %36 = fmul double %32, %35
  store double %36, ptr %8, align 8, !tbaa !77
  br label %38

37:                                               ; preds = %22
  store double 0.000000e+00, ptr %8, align 8, !tbaa !77
  br label %38

38:                                               ; preds = %37, %27
  %39 = load ptr, ptr %10, align 8, !tbaa !101
  %40 = getelementptr inbounds nuw %struct.ARKLsMassMemRec, ptr %39, i32 0, i32 20
  %41 = load ptr, ptr %40, align 8, !tbaa !137
  call void @N_VConst(double noundef 0.000000e+00, ptr noundef %41)
  %42 = load ptr, ptr %10, align 8, !tbaa !101
  %43 = getelementptr inbounds nuw %struct.ARKLsMassMemRec, ptr %42, i32 0, i32 19
  %44 = load ptr, ptr %43, align 8, !tbaa !110
  %45 = getelementptr inbounds nuw %struct._generic_SUNLinearSolver, ptr %44, i32 0, i32 1
  %46 = load ptr, ptr %45, align 8, !tbaa !24
  %47 = getelementptr inbounds nuw %struct._generic_SUNLinearSolver_Ops, ptr %46, i32 0, i32 4
  %48 = load ptr, ptr %47, align 8, !tbaa !116
  %49 = icmp ne ptr %48, null
  br i1 %49, label %50, label %71

50:                                               ; preds = %38
  %51 = load ptr, ptr %10, align 8, !tbaa !101
  %52 = getelementptr inbounds nuw %struct.ARKLsMassMemRec, ptr %51, i32 0, i32 19
  %53 = load ptr, ptr %52, align 8, !tbaa !110
  %54 = load ptr, ptr %5, align 8, !tbaa !11
  %55 = getelementptr inbounds nuw %struct.ARKodeMemRec, ptr %54, i32 0, i32 73
  %56 = load ptr, ptr %55, align 8, !tbaa !115
  %57 = load ptr, ptr %5, align 8, !tbaa !11
  %58 = getelementptr inbounds nuw %struct.ARKodeMemRec, ptr %57, i32 0, i32 72
  %59 = load ptr, ptr %58, align 8, !tbaa !85
  %60 = call i32 @SUNLinSolSetScalingVectors(ptr noundef %53, ptr noundef %56, ptr noundef %59)
  store i32 %60, ptr %12, align 4, !tbaa !30
  %61 = load i32, ptr %12, align 4, !tbaa !30
  %62 = icmp ne i32 %61, 0
  br i1 %62, label %63, label %70

63:                                               ; preds = %50
  %64 = load ptr, ptr %5, align 8, !tbaa !11
  call void (ptr, i32, i32, ptr, ptr, ptr, ...) @arkProcessError(ptr noundef %64, i32 noundef -12, i32 noundef 3824, ptr noundef @__func__.arkLsMassSolve, ptr noundef @.str, ptr noundef @.str.50)
  %65 = load ptr, ptr %10, align 8, !tbaa !101
  %66 = getelementptr inbounds nuw %struct.ARKLsMassMemRec, ptr %65, i32 0, i32 29
  store i32 -12, ptr %66, align 8, !tbaa !135
  %67 = load ptr, ptr %10, align 8, !tbaa !101
  %68 = getelementptr inbounds nuw %struct.ARKLsMassMemRec, ptr %67, i32 0, i32 29
  %69 = load i32, ptr %68, align 8, !tbaa !135
  store i32 %69, ptr %4, align 4
  store i32 1, ptr %15, align 4
  br label %188

70:                                               ; preds = %50
  br label %91

71:                                               ; preds = %38
  %72 = load ptr, ptr %10, align 8, !tbaa !101
  %73 = getelementptr inbounds nuw %struct.ARKLsMassMemRec, ptr %72, i32 0, i32 0
  %74 = load i32, ptr %73, align 8, !tbaa !122
  %75 = icmp ne i32 %74, 0
  br i1 %75, label %76, label %90

76:                                               ; preds = %71
  %77 = load ptr, ptr %10, align 8, !tbaa !101
  %78 = getelementptr inbounds nuw %struct.ARKLsMassMemRec, ptr %77, i32 0, i32 20
  %79 = load ptr, ptr %78, align 8, !tbaa !137
  call void @N_VConst(double noundef 1.000000e+00, ptr noundef %79)
  %80 = load ptr, ptr %5, align 8, !tbaa !11
  %81 = getelementptr inbounds nuw %struct.ARKodeMemRec, ptr %80, i32 0, i32 73
  %82 = load ptr, ptr %81, align 8, !tbaa !115
  %83 = load ptr, ptr %10, align 8, !tbaa !101
  %84 = getelementptr inbounds nuw %struct.ARKLsMassMemRec, ptr %83, i32 0, i32 20
  %85 = load ptr, ptr %84, align 8, !tbaa !137
  %86 = call double @N_VWrmsNorm(ptr noundef %82, ptr noundef %85)
  store double %86, ptr %9, align 8, !tbaa !77
  %87 = load double, ptr %9, align 8, !tbaa !77
  %88 = load double, ptr %8, align 8, !tbaa !77
  %89 = fdiv double %88, %87
  store double %89, ptr %8, align 8, !tbaa !77
  br label %90

90:                                               ; preds = %76, %71
  br label %91

91:                                               ; preds = %90, %70
  %92 = load ptr, ptr %10, align 8, !tbaa !101
  %93 = getelementptr inbounds nuw %struct.ARKLsMassMemRec, ptr %92, i32 0, i32 20
  %94 = load ptr, ptr %93, align 8, !tbaa !137
  call void @N_VConst(double noundef 0.000000e+00, ptr noundef %94)
  %95 = load ptr, ptr %10, align 8, !tbaa !101
  %96 = getelementptr inbounds nuw %struct.ARKLsMassMemRec, ptr %95, i32 0, i32 19
  %97 = load ptr, ptr %96, align 8, !tbaa !110
  %98 = call i32 @SUNLinSolSetZeroGuess(ptr noundef %97, i32 noundef 1)
  store i32 %98, ptr %12, align 4, !tbaa !30
  %99 = load i32, ptr %12, align 4, !tbaa !30
  %100 = icmp ne i32 %99, 0
  br i1 %100, label %101, label %102

101:                                              ; preds = %91
  store i32 -1, ptr %4, align 4
  store i32 1, ptr %15, align 4
  br label %188

102:                                              ; preds = %91
  %103 = load ptr, ptr %10, align 8, !tbaa !101
  %104 = getelementptr inbounds nuw %struct.ARKLsMassMemRec, ptr %103, i32 0, i32 17
  %105 = load i64, ptr %104, align 8, !tbaa !146
  store i64 %105, ptr %13, align 8, !tbaa !117
  %106 = load ptr, ptr %10, align 8, !tbaa !101
  %107 = getelementptr inbounds nuw %struct.ARKLsMassMemRec, ptr %106, i32 0, i32 19
  %108 = load ptr, ptr %107, align 8, !tbaa !110
  %109 = load ptr, ptr %10, align 8, !tbaa !101
  %110 = getelementptr inbounds nuw %struct.ARKLsMassMemRec, ptr %109, i32 0, i32 4
  %111 = load ptr, ptr %110, align 8, !tbaa !136
  %112 = load ptr, ptr %10, align 8, !tbaa !101
  %113 = getelementptr inbounds nuw %struct.ARKLsMassMemRec, ptr %112, i32 0, i32 20
  %114 = load ptr, ptr %113, align 8, !tbaa !137
  %115 = load ptr, ptr %6, align 8, !tbaa !78
  %116 = load double, ptr %8, align 8, !tbaa !77
  %117 = call i32 @SUNLinSolSolve(ptr noundef %108, ptr noundef %111, ptr noundef %114, ptr noundef %115, double noundef %116)
  store i32 %117, ptr %12, align 4, !tbaa !30
  %118 = load ptr, ptr %10, align 8, !tbaa !101
  %119 = getelementptr inbounds nuw %struct.ARKLsMassMemRec, ptr %118, i32 0, i32 20
  %120 = load ptr, ptr %119, align 8, !tbaa !137
  %121 = load ptr, ptr %6, align 8, !tbaa !78
  call void @N_VScale(double noundef 1.000000e+00, ptr noundef %120, ptr noundef %121)
  %122 = load ptr, ptr %10, align 8, !tbaa !101
  %123 = getelementptr inbounds nuw %struct.ARKLsMassMemRec, ptr %122, i32 0, i32 11
  %124 = load i64, ptr %123, align 8, !tbaa !140
  %125 = add nsw i64 %124, 1
  store i64 %125, ptr %123, align 8, !tbaa !140
  store double 0.000000e+00, ptr %14, align 8, !tbaa !77
  store i32 0, ptr %11, align 4, !tbaa !30
  %126 = load ptr, ptr %10, align 8, !tbaa !101
  %127 = getelementptr inbounds nuw %struct.ARKLsMassMemRec, ptr %126, i32 0, i32 0
  %128 = load i32, ptr %127, align 8, !tbaa !122
  %129 = icmp ne i32 %128, 0
  br i1 %129, label %130, label %159

130:                                              ; preds = %102
  %131 = load ptr, ptr %10, align 8, !tbaa !101
  %132 = getelementptr inbounds nuw %struct.ARKLsMassMemRec, ptr %131, i32 0, i32 19
  %133 = load ptr, ptr %132, align 8, !tbaa !110
  %134 = getelementptr inbounds nuw %struct._generic_SUNLinearSolver, ptr %133, i32 0, i32 1
  %135 = load ptr, ptr %134, align 8, !tbaa !24
  %136 = getelementptr inbounds nuw %struct._generic_SUNLinearSolver_Ops, ptr %135, i32 0, i32 10
  %137 = load ptr, ptr %136, align 8, !tbaa !118
  %138 = icmp ne ptr %137, null
  br i1 %138, label %139, label %144

139:                                              ; preds = %130
  %140 = load ptr, ptr %10, align 8, !tbaa !101
  %141 = getelementptr inbounds nuw %struct.ARKLsMassMemRec, ptr %140, i32 0, i32 19
  %142 = load ptr, ptr %141, align 8, !tbaa !110
  %143 = call double @SUNLinSolResNorm(ptr noundef %142)
  store double %143, ptr %14, align 8, !tbaa !77
  br label %144

144:                                              ; preds = %139, %130
  %145 = load ptr, ptr %10, align 8, !tbaa !101
  %146 = getelementptr inbounds nuw %struct.ARKLsMassMemRec, ptr %145, i32 0, i32 19
  %147 = load ptr, ptr %146, align 8, !tbaa !110
  %148 = getelementptr inbounds nuw %struct._generic_SUNLinearSolver, ptr %147, i32 0, i32 1
  %149 = load ptr, ptr %148, align 8, !tbaa !24
  %150 = getelementptr inbounds nuw %struct._generic_SUNLinearSolver_Ops, ptr %149, i32 0, i32 9
  %151 = load ptr, ptr %150, align 8, !tbaa !119
  %152 = icmp ne ptr %151, null
  br i1 %152, label %153, label %158

153:                                              ; preds = %144
  %154 = load ptr, ptr %10, align 8, !tbaa !101
  %155 = getelementptr inbounds nuw %struct.ARKLsMassMemRec, ptr %154, i32 0, i32 19
  %156 = load ptr, ptr %155, align 8, !tbaa !110
  %157 = call i32 @SUNLinSolNumIters(ptr noundef %156)
  store i32 %157, ptr %11, align 4, !tbaa !30
  br label %158

158:                                              ; preds = %153, %144
  br label %159

159:                                              ; preds = %158, %102
  %160 = load i32, ptr %11, align 4, !tbaa !30
  %161 = sext i32 %160 to i64
  %162 = load ptr, ptr %10, align 8, !tbaa !101
  %163 = getelementptr inbounds nuw %struct.ARKLsMassMemRec, ptr %162, i32 0, i32 16
  %164 = load i64, ptr %163, align 8, !tbaa !145
  %165 = add nsw i64 %164, %161
  store i64 %165, ptr %163, align 8, !tbaa !145
  %166 = load i32, ptr %12, align 4, !tbaa !30
  %167 = icmp ne i32 %166, 0
  br i1 %167, label %168, label %173

168:                                              ; preds = %159
  %169 = load ptr, ptr %10, align 8, !tbaa !101
  %170 = getelementptr inbounds nuw %struct.ARKLsMassMemRec, ptr %169, i32 0, i32 18
  %171 = load i64, ptr %170, align 8, !tbaa !147
  %172 = add nsw i64 %171, 1
  store i64 %172, ptr %170, align 8, !tbaa !147
  br label %173

173:                                              ; preds = %168, %159
  %174 = load i32, ptr %12, align 4, !tbaa !30
  %175 = load ptr, ptr %10, align 8, !tbaa !101
  %176 = getelementptr inbounds nuw %struct.ARKLsMassMemRec, ptr %175, i32 0, i32 29
  store i32 %174, ptr %176, align 8, !tbaa !135
  %177 = load i32, ptr %12, align 4, !tbaa !30
  switch i32 %177, label %187 [
    i32 0, label %178
    i32 801, label %179
    i32 802, label %179
    i32 803, label %179
    i32 805, label %179
    i32 806, label %179
    i32 807, label %179
    i32 808, label %179
    i32 -9999, label %180
    i32 -9998, label %180
    i32 -9989, label %180
    i32 -810, label %180
    i32 -811, label %180
    i32 -9987, label %181
    i32 -805, label %183
    i32 -808, label %185
  ]

178:                                              ; preds = %173
  store i32 0, ptr %4, align 4
  store i32 1, ptr %15, align 4
  br label %188

179:                                              ; preds = %173, %173, %173, %173, %173, %173, %173
  store i32 1, ptr %4, align 4
  store i32 1, ptr %15, align 4
  br label %188

180:                                              ; preds = %173, %173, %173, %173, %173
  store i32 -1, ptr %4, align 4
  store i32 1, ptr %15, align 4
  br label %188

181:                                              ; preds = %173
  %182 = load ptr, ptr %5, align 8, !tbaa !11
  call void (ptr, i32, i32, ptr, ptr, ptr, ...) @arkProcessError(ptr noundef %182, i32 noundef -9987, i32 noundef 3920, ptr noundef @__func__.arkLsMassSolve, ptr noundef @.str, ptr noundef @.str.52)
  store i32 -1, ptr %4, align 4
  store i32 1, ptr %15, align 4
  br label %188

183:                                              ; preds = %173
  %184 = load ptr, ptr %5, align 8, !tbaa !11
  call void (ptr, i32, i32, ptr, ptr, ptr, ...) @arkProcessError(ptr noundef %184, i32 noundef -805, i32 noundef 3925, ptr noundef @__func__.arkLsMassSolve, ptr noundef @.str, ptr noundef @.str.62)
  store i32 -1, ptr %4, align 4
  store i32 1, ptr %15, align 4
  br label %188

185:                                              ; preds = %173
  %186 = load ptr, ptr %5, align 8, !tbaa !11
  call void (ptr, i32, i32, ptr, ptr, ptr, ...) @arkProcessError(ptr noundef %186, i32 noundef -808, i32 noundef 3930, ptr noundef @__func__.arkLsMassSolve, ptr noundef @.str, ptr noundef @.str.54)
  store i32 -1, ptr %4, align 4
  store i32 1, ptr %15, align 4
  br label %188

187:                                              ; preds = %173
  store i32 0, ptr %4, align 4
  store i32 1, ptr %15, align 4
  br label %188

188:                                              ; preds = %187, %185, %183, %181, %180, %179, %178, %101, %63, %20
  call void @llvm.lifetime.end.p0(i64 8, ptr %14) #7
  call void @llvm.lifetime.end.p0(i64 8, ptr %13) #7
  call void @llvm.lifetime.end.p0(i64 4, ptr %12) #7
  call void @llvm.lifetime.end.p0(i64 4, ptr %11) #7
  call void @llvm.lifetime.end.p0(i64 8, ptr %10) #7
  call void @llvm.lifetime.end.p0(i64 8, ptr %9) #7
  call void @llvm.lifetime.end.p0(i64 8, ptr %8) #7
  %189 = load i32, ptr %4, align 4
  ret i32 %189
}