; Function Attrs: nounwind uwtable
define range(i32 -12, 2) i32 @arkLsMassSolve(ptr noundef %0, ptr noundef %1, double noundef %2) #0 {
  %4 = getelementptr inbounds nuw i8, ptr %0, i64 536
  %5 = load ptr, ptr %4, align 8, !tbaa !75
  %6 = tail call ptr %5(ptr noundef %0) #13
  %7 = icmp eq ptr %6, null
  br i1 %7, label %arkLs_AccessMassMem.exit, label %8

arkLs_AccessMassMem.exit:                         ; preds = %3
  tail call void (ptr, i32, i32, ptr, ptr, ptr, ...) @arkProcessError(ptr noundef nonnull %0, i32 noundef -6, i32 noundef 4109, ptr noundef nonnull @__func__.arkLsMassSolve, ptr noundef nonnull @.str, ptr noundef nonnull @.str.65) #13
  br label %89

8:                                                ; preds = %3
  %9 = load i32, ptr %6, align 8, !tbaa !107
  %.not25 = icmp eq i32 %9, 0
  br i1 %.not25, label %17, label %10

10:                                               ; preds = %8
  %11 = getelementptr inbounds nuw i8, ptr %6, i64 40
  %12 = load double, ptr %11, align 8, !tbaa !112
  %13 = fmul double %2, %12
  %14 = getelementptr inbounds nuw i8, ptr %6, i64 48
  %15 = load double, ptr %14, align 8, !tbaa !115
  %16 = fmul double %13, %15
  br label %17

17:                                               ; preds = %8, %10
  %.023 = phi double [ %16, %10 ], [ 0.000000e+00, %8 ]
  %18 = getelementptr inbounds nuw i8, ptr %6, i64 152
  %19 = load ptr, ptr %18, align 8, !tbaa !114
  tail call void @N_VConst(double noundef 0.000000e+00, ptr noundef %19) #13
  %20 = getelementptr inbounds nuw i8, ptr %6, i64 144
  %21 = load ptr, ptr %20, align 8, !tbaa !88
  %22 = getelementptr inbounds nuw i8, ptr %21, i64 8
  %23 = load ptr, ptr %22, align 8, !tbaa !17
  %24 = getelementptr inbounds nuw i8, ptr %23, i64 32
  %25 = load ptr, ptr %24, align 8, !tbaa !98
  %.not26 = icmp eq ptr %25, null
  br i1 %.not26, label %34, label %26

26:                                               ; preds = %17
  %27 = getelementptr inbounds nuw i8, ptr %0, i64 568
  %28 = load ptr, ptr %27, align 8, !tbaa !97
  %29 = getelementptr inbounds nuw i8, ptr %0, i64 560
  %30 = load ptr, ptr %29, align 8, !tbaa !73
  %31 = tail call i32 @SUNLinSolSetScalingVectors(ptr noundef nonnull %21, ptr noundef %28, ptr noundef %30) #13
  %.not28 = icmp eq i32 %31, 0
  br i1 %.not28, label %43, label %32

32:                                               ; preds = %26
  tail call void (ptr, i32, i32, ptr, ptr, ptr, ...) @arkProcessError(ptr noundef nonnull %0, i32 noundef -12, i32 noundef 3824, ptr noundef nonnull @__func__.arkLsMassSolve, ptr noundef nonnull @.str, ptr noundef nonnull @.str.50) #13
  %33 = getelementptr inbounds nuw i8, ptr %6, i64 224
  store i32 -12, ptr %33, align 8, !tbaa !117
  br label %89

34:                                               ; preds = %17
  %35 = load i32, ptr %6, align 8, !tbaa !107
  %.not27 = icmp eq i32 %35, 0
  br i1 %.not27, label %43, label %36

36:                                               ; preds = %34
  %37 = load ptr, ptr %18, align 8, !tbaa !114
  tail call void @N_VConst(double noundef 1.000000e+00, ptr noundef %37) #13
  %38 = getelementptr inbounds nuw i8, ptr %0, i64 568
  %39 = load ptr, ptr %38, align 8, !tbaa !97
  %40 = load ptr, ptr %18, align 8, !tbaa !114
  %41 = tail call double @N_VWrmsNorm(ptr noundef %39, ptr noundef %40) #13
  %42 = fdiv double %.023, %41
  br label %43

43:                                               ; preds = %34, %36, %26
  %.1 = phi double [ %.023, %26 ], [ %42, %36 ], [ %.023, %34 ]
  %44 = load ptr, ptr %18, align 8, !tbaa !114
  tail call void @N_VConst(double noundef 0.000000e+00, ptr noundef %44) #13
  %45 = load ptr, ptr %20, align 8, !tbaa !88
  %46 = tail call i32 @SUNLinSolSetZeroGuess(ptr noundef %45, i32 noundef 1) #13
  %.not29 = icmp eq i32 %46, 0
  br i1 %.not29, label %47, label %89

47:                                               ; preds = %43
  %48 = load ptr, ptr %20, align 8, !tbaa !88
  %49 = getelementptr inbounds nuw i8, ptr %6, i64 24
  %50 = load ptr, ptr %49, align 8, !tbaa !113
  %51 = load ptr, ptr %18, align 8, !tbaa !114
  %52 = tail call i32 @SUNLinSolSolve(ptr noundef %48, ptr noundef %50, ptr noundef %51, ptr noundef %1, double noundef %.1) #13
  %53 = load ptr, ptr %18, align 8, !tbaa !114
  tail call void @N_VScale(double noundef 1.000000e+00, ptr noundef %53, ptr noundef %1) #13
  %54 = getelementptr inbounds nuw i8, ptr %6, i64 80
  %55 = load i64, ptr %54, align 8, !tbaa !132
  %56 = add nsw i64 %55, 1
  store i64 %56, ptr %54, align 8, !tbaa !132
  %57 = load i32, ptr %6, align 8, !tbaa !107
  %.not30 = icmp eq i32 %57, 0
  br i1 %.not30, label %74, label %58

58:                                               ; preds = %47
  %59 = load ptr, ptr %20, align 8, !tbaa !88
  %60 = getelementptr inbounds nuw i8, ptr %59, i64 8
  %61 = load ptr, ptr %60, align 8, !tbaa !17
  %62 = getelementptr inbounds nuw i8, ptr %61, i64 80
  %63 = load ptr, ptr %62, align 8, !tbaa !100
  %.not31 = icmp eq ptr %63, null
  br i1 %.not31, label %66, label %64

64:                                               ; preds = %58
  %65 = tail call double @SUNLinSolResNorm(ptr noundef nonnull %59) #13
  %.pre = load ptr, ptr %20, align 8, !tbaa !88
  %.phi.trans.insert = getelementptr inbounds nuw i8, ptr %.pre, i64 8
  %.pre50 = load ptr, ptr %.phi.trans.insert, align 8, !tbaa !17
  br label %66

66:                                               ; preds = %64, %58
  %67 = phi ptr [ %.pre50, %64 ], [ %61, %58 ]
  %68 = phi ptr [ %.pre, %64 ], [ %59, %58 ]
  %69 = getelementptr inbounds nuw i8, ptr %67, i64 72
  %70 = load ptr, ptr %69, align 8, !tbaa !101
  %.not32 = icmp eq ptr %70, null
  br i1 %.not32, label %74, label %71

71:                                               ; preds = %66
  %72 = tail call i32 @SUNLinSolNumIters(ptr noundef nonnull %68) #13
  %73 = sext i32 %72 to i64
  br label %74

74:                                               ; preds = %66, %71, %47
  %.022 = phi i64 [ %73, %71 ], [ 0, %66 ], [ 0, %47 ]
  %75 = getelementptr inbounds nuw i8, ptr %6, i64 120
  %76 = load i64, ptr %75, align 8, !tbaa !133
  %77 = add nsw i64 %76, %.022
  store i64 %77, ptr %75, align 8, !tbaa !133
  %.not33 = icmp eq i32 %52, 0
  br i1 %.not33, label %.thread, label %79

.thread:                                          ; preds = %74
  %78 = getelementptr inbounds nuw i8, ptr %6, i64 224
  store i32 0, ptr %78, align 8, !tbaa !117
  br label %88

79:                                               ; preds = %74
  %80 = getelementptr inbounds nuw i8, ptr %6, i64 136
  %81 = load i64, ptr %80, align 8, !tbaa !134
  %82 = add nsw i64 %81, 1
  store i64 %82, ptr %80, align 8, !tbaa !134
  %83 = getelementptr inbounds nuw i8, ptr %6, i64 224
  store i32 %52, ptr %83, align 8, !tbaa !117
  switch i32 %52, label %88 [
    i32 -808, label %87
    i32 801, label %89
    i32 802, label %89
    i32 803, label %89
    i32 805, label %89
    i32 806, label %89
    i32 807, label %89
    i32 808, label %89
    i32 -9999, label %84
    i32 -9998, label %84
    i32 -9989, label %84
    i32 -810, label %84
    i32 -811, label %84
    i32 -9987, label %85
    i32 -805, label %86
  ]

84:                                               ; preds = %79, %79, %79, %79, %79
  br label %89

85:                                               ; preds = %79
  tail call void (ptr, i32, i32, ptr, ptr, ptr, ...) @arkProcessError(ptr noundef nonnull %0, i32 noundef -9987, i32 noundef 3920, ptr noundef nonnull @__func__.arkLsMassSolve, ptr noundef nonnull @.str, ptr noundef nonnull @.str.52) #13
  br label %89

86:                                               ; preds = %79
  tail call void (ptr, i32, i32, ptr, ptr, ptr, ...) @arkProcessError(ptr noundef nonnull %0, i32 noundef -805, i32 noundef 3925, ptr noundef nonnull @__func__.arkLsMassSolve, ptr noundef nonnull @.str, ptr noundef nonnull @.str.62) #13
  br label %89

87:                                               ; preds = %79
  tail call void (ptr, i32, i32, ptr, ptr, ptr, ...) @arkProcessError(ptr noundef nonnull %0, i32 noundef -808, i32 noundef 3930, ptr noundef nonnull @__func__.arkLsMassSolve, ptr noundef nonnull @.str, ptr noundef nonnull @.str.54) #13
  br label %89

88:                                               ; preds = %.thread, %79
  br label %89

89:                                               ; preds = %arkLs_AccessMassMem.exit, %79, %79, %79, %79, %79, %79, %79, %43, %88, %87, %86, %85, %84, %32
  %.0 = phi i32 [ -12, %32 ], [ 0, %88 ], [ -1, %87 ], [ -1, %86 ], [ -1, %85 ], [ -1, %84 ], [ -6, %arkLs_AccessMassMem.exit ], [ -1, %43 ], [ 1, %79 ], [ 1, %79 ], [ 1, %79 ], [ 1, %79 ], [ 1, %79 ], [ 1, %79 ], [ 1, %79 ]
  ret i32 %.0
}